; Function Attrs: mustprogress nofree norecurse nosync nounwind willreturn memory(readwrite, inaccessiblemem: none) uwtable
define hidden void @zend_oparray_context_begin(ptr nocapture noundef writeonly %0) local_unnamed_addr #2 {
  tail call void @llvm.memcpy.p0.p0.i64(ptr noundef nonnull align 8 dereferenceable(56) %0, ptr noundef nonnull align 8 dereferenceable(56) getelementptr inbounds (%struct._zend_compiler_globals, ptr @compiler_globals, i64 0, i32 22), i64 56, i1 false)
  store <4 x i32> <i32 64, i32 0, i32 0, i32 -1>, ptr getelementptr inbounds (%struct._zend_compiler_globals, ptr @compiler_globals, i64 0, i32 22), align 8
  store i32 -1, ptr getelementptr inbounds (%struct._zend_compiler_globals, ptr @compiler_globals, i64 0, i32 22, i32 4), align 8
  store i32 -1, ptr getelementptr inbounds (%struct._zend_compiler_globals, ptr @compiler_globals, i64 0, i32 22, i32 5), align 4
  store i32 0, ptr getelementptr inbounds (%struct._zend_compiler_globals, ptr @compiler_globals, i64 0, i32 22, i32 6), align 8
  tail call void @llvm.memset.p0.i64(ptr noundef nonnull align 8 dereferenceable(17) getelementptr inbounds (%struct._zend_compiler_globals, ptr @compiler_globals, i64 0, i32 22, i32 7), i8 0, i64 17, i1 false)
  ret void
}